; Listing generated by Microsoft (R) Optimizing Compiler Version 19.41.34123.0 

include listing.inc

INCLUDELIB MSVCRTD
INCLUDELIB OLDNAMES

msvcjmc	SEGMENT
__A0D90018_filtrcpp@pch DB 01H
__E610241F_cstring DB 01H
__06315A0F_dllmain@cpp DB 01H
__CEA0B545_stdint@h DB 01H
__467C4747_xkeycheck@h DB 01H
__4FC715A5_yvals_core@h DB 01H
__17DC6D82_cstdint DB 01H
__F7FD5C61_pch@h DB 01H
__6D5457EF_pch@cpp DB 01H
msvcjmc	ENDS
PUBLIC	ApplyEmbossEastFilter
PUBLIC	__JustMyCode_Default
EXTRN	_RTC_CheckStackVars:PROC
EXTRN	_RTC_InitBase:PROC
EXTRN	_RTC_Shutdown:PROC
EXTRN	__CheckForDebuggerJustMyCode:PROC
EXTRN	__GSHandlerCheck:PROC
EXTRN	__security_check_cookie:PROC
EXTRN	__security_cookie:QWORD
;	COMDAT pdata
pdata	SEGMENT
$pdata$ApplyEmbossEastFilter DD imagerel $LN12
	DD	imagerel $LN12+890
	DD	imagerel $unwind$ApplyEmbossEastFilter
pdata	ENDS
;	COMDAT pdata
pdata	SEGMENT
$pdata$??R<lambda_1>@?1??ApplyEmbossEastFilter@@YAXPEAE0HHH@Z@QEBAEH@Z DD imagerel ??R<lambda_1>@?1??ApplyEmbossEastFilter@@YAXPEAE0HHH@Z@QEBAEH@Z
	DD	imagerel ??R<lambda_1>@?1??ApplyEmbossEastFilter@@YAXPEAE0HHH@Z@QEBAEH@Z+122
	DD	imagerel $unwind$??R<lambda_1>@?1??ApplyEmbossEastFilter@@YAXPEAE0HHH@Z@QEBAEH@Z
pdata	ENDS
;	COMDAT rtc$TMZ
rtc$TMZ	SEGMENT
_RTC_Shutdown.rtc$TMZ DQ FLAT:_RTC_Shutdown
rtc$TMZ	ENDS
;	COMDAT rtc$IMZ
rtc$IMZ	SEGMENT
_RTC_InitBase.rtc$IMZ DQ FLAT:_RTC_InitBase
rtc$IMZ	ENDS
;	COMDAT xdata
xdata	SEGMENT
$unwind$??R<lambda_1>@?1??ApplyEmbossEastFilter@@YAXPEAE0HHH@Z@QEBAEH@Z DD 025051701H
	DD	01122317H
	DD	0700b001fH
	DD	0500aH
xdata	ENDS
;	COMDAT voltbl
voltbl	SEGMENT
_volmd	DW	045H
	DW	0361H
voltbl	ENDS
;	COMDAT xdata
xdata	SEGMENT
$unwind$ApplyEmbossEastFilter DD 025054c19H
	DD	011d2322H
	DD	070160079H
	DD	05015H
	DD	imagerel __GSHandlerCheck
	DD	03b8H
xdata	ENDS
;	COMDAT CONST
CONST	SEGMENT
ApplyEmbossEastFilter$rtcName$0 DB 063H
	DB	06cH
	DB	061H
	DB	06dH
	DB	070H
	DB	00H
	ORG $+10
ApplyEmbossEastFilter$rtcVarDesc DD 084H
	DD	01H
	DQ	FLAT:ApplyEmbossEastFilter$rtcName$0
	ORG $+48
ApplyEmbossEastFilter$rtcFrameData DD 01H
	DD	00H
	DQ	FLAT:ApplyEmbossEastFilter$rtcVarDesc
CONST	ENDS
; Function compile flags: /Odt
;	COMDAT __JustMyCode_Default
_TEXT	SEGMENT
__JustMyCode_Default PROC				; COMDAT
	ret	0
__JustMyCode_Default ENDP
_TEXT	ENDS
; Function compile flags: /Odtp /RTCsu /ZI
;	COMDAT ??R<lambda_1>@?1??ApplyEmbossEastFilter@@YAXPEAE0HHH@Z@QEBAEH@Z
_TEXT	SEGMENT
tv67 = 192
tv66 = 196
this$ = 240
value$ = 248
??R<lambda_1>@?1??ApplyEmbossEastFilter@@YAXPEAE0HHH@Z@QEBAEH@Z PROC ; `ApplyEmbossEastFilter'::`2'::<lambda_1>::operator(), COMDAT
; File C:\Users\knamy\Desktop\Asembler\JA_filtr\filtrcpp\dllmain.cpp
; Line 17
	mov	DWORD PTR [rsp+16], edx
	mov	QWORD PTR [rsp+8], rcx
	push	rbp
	push	rdi
	sub	rsp, 248				; 000000f8H
	lea	rbp, QWORD PTR [rsp+32]
	lea	rcx, OFFSET FLAT:__06315A0F_dllmain@cpp
	call	__CheckForDebuggerJustMyCode
	npad	1
; Line 18
	cmp	DWORD PTR value$[rbp], 0
	jge	SHORT $LN5@operator
	mov	DWORD PTR tv67[rbp], 0
	jmp	SHORT $LN6@operator
$LN5@operator:
	cmp	DWORD PTR value$[rbp], 255		; 000000ffH
	jle	SHORT $LN3@operator
	mov	DWORD PTR tv66[rbp], 255		; 000000ffH
	jmp	SHORT $LN4@operator
$LN3@operator:
	mov	eax, DWORD PTR value$[rbp]
	mov	DWORD PTR tv66[rbp], eax
$LN4@operator:
	mov	eax, DWORD PTR tv66[rbp]
	mov	DWORD PTR tv67[rbp], eax
$LN6@operator:
	movzx	eax, BYTE PTR tv67[rbp]
; Line 19
	lea	rsp, QWORD PTR [rbp+216]
	pop	rdi
	pop	rbp
	ret	0
??R<lambda_1>@?1??ApplyEmbossEastFilter@@YAXPEAE0HHH@Z@QEBAEH@Z ENDP ; `ApplyEmbossEastFilter'::`2'::<lambda_1>::operator()
_TEXT	ENDS
; Function compile flags: /Odtp /RTCsu /ZI
;	COMDAT ApplyEmbossEastFilter
_TEXT	SEGMENT
bytesPerPixel$ = 4
processWidth$ = 36
processHeight$ = 68
clamp$ = 100
y$4 = 132
x$5 = 164
pixelOffset$6 = 196
topLeft$7 = 232
topRight$8 = 264
middleLeft$9 = 296
middle$10 = 328
middleRight$11 = 360
bottomLeft$12 = 392
bottomRight$13 = 424
channel$14 = 452
sum$15 = 484
$T16 = 900
__$ArrayPad$ = 920
inputSegmentPtr$ = 960
outputSegmentPtr$ = 968
width$ = 976
height$ = 984
stride$ = 992
ApplyEmbossEastFilter PROC				; COMDAT
; File C:\Users\knamy\Desktop\Asembler\JA_filtr\filtrcpp\dllmain.cpp
; Line 10
$LN12:
	mov	DWORD PTR [rsp+32], r9d
	mov	DWORD PTR [rsp+24], r8d
	mov	QWORD PTR [rsp+16], rdx
	mov	QWORD PTR [rsp+8], rcx
	push	rbp
	push	rdi
	sub	rsp, 968				; 000003c8H
	lea	rbp, QWORD PTR [rsp+32]
	lea	rdi, QWORD PTR [rsp+32]
	mov	ecx, 138				; 0000008aH
	mov	eax, -858993460				; ccccccccH
	rep stosd
	mov	rcx, QWORD PTR [rsp+1000]
	mov	rax, QWORD PTR __security_cookie
	xor	rax, rbp
	mov	QWORD PTR __$ArrayPad$[rbp], rax
	lea	rcx, OFFSET FLAT:__06315A0F_dllmain@cpp
	call	__CheckForDebuggerJustMyCode
	npad	1
; Line 12
	mov	DWORD PTR bytesPerPixel$[rbp], 3
; Line 13
	mov	eax, DWORD PTR width$[rbp]
	sub	eax, 2
	mov	DWORD PTR processWidth$[rbp], eax
; Line 14
	mov	eax, DWORD PTR height$[rbp]
	sub	eax, 2
	mov	DWORD PTR processHeight$[rbp], eax
; Line 17
	lea	rax, QWORD PTR $T16[rbp]
	mov	rdi, rax
	xor	eax, eax
	mov	ecx, 1
	rep stosb
; Line 21
	mov	DWORD PTR y$4[rbp], 2
	jmp	SHORT $LN4@ApplyEmbos
$LN2@ApplyEmbos:
	mov	eax, DWORD PTR y$4[rbp]
	inc	eax
	mov	DWORD PTR y$4[rbp], eax
$LN4@ApplyEmbos:
	mov	eax, DWORD PTR processHeight$[rbp]
	inc	eax
	cmp	DWORD PTR y$4[rbp], eax
	jge	$LN3@ApplyEmbos
; Line 22
	mov	DWORD PTR x$5[rbp], 2
	jmp	SHORT $LN7@ApplyEmbos
$LN5@ApplyEmbos:
	mov	eax, DWORD PTR x$5[rbp]
	inc	eax
	mov	DWORD PTR x$5[rbp], eax
$LN7@ApplyEmbos:
	mov	eax, DWORD PTR processWidth$[rbp]
	inc	eax
	cmp	DWORD PTR x$5[rbp], eax
	jge	$LN6@ApplyEmbos
; Line 23
	mov	eax, DWORD PTR y$4[rbp]
	imul	eax, DWORD PTR stride$[rbp]
	mov	ecx, DWORD PTR x$5[rbp]
	imul	ecx, DWORD PTR bytesPerPixel$[rbp]
	add	eax, ecx
	mov	DWORD PTR pixelOffset$6[rbp], eax
; Line 26
	mov	eax, DWORD PTR y$4[rbp]
	dec	eax
	imul	eax, DWORD PTR stride$[rbp]
	mov	ecx, DWORD PTR x$5[rbp]
	dec	ecx
	imul	ecx, DWORD PTR bytesPerPixel$[rbp]
	add	eax, ecx
	cdqe
	mov	rcx, QWORD PTR inputSegmentPtr$[rbp]
	add	rcx, rax
	mov	rax, rcx
	mov	QWORD PTR topLeft$7[rbp], rax
; Line 27
	mov	eax, DWORD PTR y$4[rbp]
	dec	eax
	imul	eax, DWORD PTR stride$[rbp]
	mov	ecx, DWORD PTR x$5[rbp]
	inc	ecx
	imul	ecx, DWORD PTR bytesPerPixel$[rbp]
	add	eax, ecx
	cdqe
	mov	rcx, QWORD PTR inputSegmentPtr$[rbp]
	add	rcx, rax
	mov	rax, rcx
	mov	QWORD PTR topRight$8[rbp], rax
; Line 28
	mov	eax, DWORD PTR y$4[rbp]
	imul	eax, DWORD PTR stride$[rbp]
	mov	ecx, DWORD PTR x$5[rbp]
	dec	ecx
	imul	ecx, DWORD PTR bytesPerPixel$[rbp]
	add	eax, ecx
	cdqe
	mov	rcx, QWORD PTR inputSegmentPtr$[rbp]
	add	rcx, rax
	mov	rax, rcx
	mov	QWORD PTR middleLeft$9[rbp], rax
; Line 29
	mov	eax, DWORD PTR y$4[rbp]
	imul	eax, DWORD PTR stride$[rbp]
	mov	ecx, DWORD PTR x$5[rbp]
	imul	ecx, DWORD PTR bytesPerPixel$[rbp]
	add	eax, ecx
	cdqe
	mov	rcx, QWORD PTR inputSegmentPtr$[rbp]
	add	rcx, rax
	mov	rax, rcx
	mov	QWORD PTR middle$10[rbp], rax
; Line 30
	mov	eax, DWORD PTR y$4[rbp]
	imul	eax, DWORD PTR stride$[rbp]
	mov	ecx, DWORD PTR x$5[rbp]
	inc	ecx
	imul	ecx, DWORD PTR bytesPerPixel$[rbp]
	add	eax, ecx
	cdqe
	mov	rcx, QWORD PTR inputSegmentPtr$[rbp]
	add	rcx, rax
	mov	rax, rcx
	mov	QWORD PTR middleRight$11[rbp], rax
; Line 31
	mov	eax, DWORD PTR y$4[rbp]
	inc	eax
	imul	eax, DWORD PTR stride$[rbp]
	mov	ecx, DWORD PTR x$5[rbp]
	dec	ecx
	imul	ecx, DWORD PTR bytesPerPixel$[rbp]
	add	eax, ecx
	cdqe
	mov	rcx, QWORD PTR inputSegmentPtr$[rbp]
	add	rcx, rax
	mov	rax, rcx
	mov	QWORD PTR bottomLeft$12[rbp], rax
; Line 32
	mov	eax, DWORD PTR y$4[rbp]
	inc	eax
	imul	eax, DWORD PTR stride$[rbp]
	mov	ecx, DWORD PTR x$5[rbp]
	inc	ecx
	imul	ecx, DWORD PTR bytesPerPixel$[rbp]
	add	eax, ecx
	cdqe
	mov	rcx, QWORD PTR inputSegmentPtr$[rbp]
	add	rcx, rax
	mov	rax, rcx
	mov	QWORD PTR bottomRight$13[rbp], rax
; Line 34
	mov	DWORD PTR channel$14[rbp], 0
	jmp	SHORT $LN10@ApplyEmbos
$LN8@ApplyEmbos:
	mov	eax, DWORD PTR channel$14[rbp]
	inc	eax
	mov	DWORD PTR channel$14[rbp], eax
$LN10@ApplyEmbos:
	mov	eax, DWORD PTR bytesPerPixel$[rbp]
	cmp	DWORD PTR channel$14[rbp], eax
	jge	$LN9@ApplyEmbos
; Line 35
	movsxd	rax, DWORD PTR channel$14[rbp]
	mov	rcx, QWORD PTR topRight$8[rbp]
	movzx	eax, BYTE PTR [rcx+rax]
	movsxd	rcx, DWORD PTR channel$14[rbp]
	mov	rdx, QWORD PTR topLeft$7[rbp]
	movzx	ecx, BYTE PTR [rdx+rcx]
	sub	eax, ecx
	movsxd	rcx, DWORD PTR channel$14[rbp]
	mov	rdx, QWORD PTR middleRight$11[rbp]
	movzx	ecx, BYTE PTR [rdx+rcx]
	add	eax, ecx
	movsxd	rcx, DWORD PTR channel$14[rbp]
	mov	rdx, QWORD PTR middle$10[rbp]
	movzx	ecx, BYTE PTR [rdx+rcx]
	add	eax, ecx
	movsxd	rcx, DWORD PTR channel$14[rbp]
	mov	rdx, QWORD PTR middleLeft$9[rbp]
	movzx	ecx, BYTE PTR [rdx+rcx]
	sub	eax, ecx
	movsxd	rcx, DWORD PTR channel$14[rbp]
	mov	rdx, QWORD PTR bottomRight$13[rbp]
	movzx	ecx, BYTE PTR [rdx+rcx]
	add	eax, ecx
	movsxd	rcx, DWORD PTR channel$14[rbp]
	mov	rdx, QWORD PTR bottomLeft$12[rbp]
	movzx	ecx, BYTE PTR [rdx+rcx]
	sub	eax, ecx
	mov	DWORD PTR sum$15[rbp], eax
; Line 41
	mov	edx, DWORD PTR sum$15[rbp]
	lea	rcx, QWORD PTR clamp$[rbp]
	call	??R<lambda_1>@?1??ApplyEmbossEastFilter@@YAXPEAE0HHH@Z@QEBAEH@Z ; `ApplyEmbossEastFilter'::`2'::<lambda_1>::operator()
	mov	ecx, DWORD PTR channel$14[rbp]
	mov	edx, DWORD PTR pixelOffset$6[rbp]
	add	edx, ecx
	mov	ecx, edx
	movsxd	rcx, ecx
	mov	rdx, QWORD PTR outputSegmentPtr$[rbp]
	mov	BYTE PTR [rdx+rcx], al
; Line 42
	jmp	$LN8@ApplyEmbos
$LN9@ApplyEmbos:
; Line 43
	jmp	$LN5@ApplyEmbos
$LN6@ApplyEmbos:
; Line 44
	jmp	$LN2@ApplyEmbos
$LN3@ApplyEmbos:
; Line 45
	lea	rcx, QWORD PTR [rbp-32]
	lea	rdx, OFFSET FLAT:ApplyEmbossEastFilter$rtcFrameData
	call	_RTC_CheckStackVars
	mov	rcx, QWORD PTR __$ArrayPad$[rbp]
	xor	rcx, rbp
	call	__security_check_cookie
	lea	rsp, QWORD PTR [rbp+936]
	pop	rdi
	pop	rbp
	ret	0
ApplyEmbossEastFilter ENDP
_TEXT	ENDS
END
